; Function Attrs: nounwind uwtable
define internal void @cf_setup_close(ptr noundef %0, ptr noundef %1) #0 {
  %3 = getelementptr inbounds nuw i8, ptr %0, i64 16
  %4 = load ptr, ptr %3, align 8, !tbaa !107
  %.not = icmp eq ptr %1, null
  br i1 %.not, label %22, label %5

5:                                                ; preds = %2
  %6 = getelementptr inbounds nuw i8, ptr %1, i64 2562
  %7 = load i64, ptr %6, align 2
  %8 = and i64 %7, 134217728
  %.not20 = icmp eq i64 %8, 0
  br i1 %.not20, label %22, label %9

9:                                                ; preds = %5
  %10 = getelementptr inbounds nuw i8, ptr %1, i64 4712
  %11 = load ptr, ptr %10, align 8, !tbaa !111
  %.not21 = icmp eq ptr %11, null
  br i1 %.not21, label %16, label %12

12:                                               ; preds = %9
  %13 = getelementptr inbounds nuw i8, ptr %11, i64 8
  %14 = load i32, ptr %13, align 8, !tbaa !112
  %15 = icmp sgt i32 %14, 0
  br i1 %15, label %16, label %22

16:                                               ; preds = %9, %12
  %17 = load ptr, ptr %0, align 8, !tbaa !114
  %18 = getelementptr inbounds nuw i8, ptr %17, i64 12
  %19 = load i32, ptr %18, align 4, !tbaa !115
  %20 = icmp sgt i32 %19, 0
  br i1 %20, label %21, label %22

21:                                               ; preds = %16
  tail call void (ptr, ptr, ptr, ...) @Curl_trc_cf_infof(ptr noundef nonnull %1, ptr noundef nonnull %0, ptr noundef nonnull @.str.20) #10
  br label %22

22:                                               ; preds = %21, %16, %12, %5, %2
  %23 = getelementptr inbounds nuw i8, ptr %0, i64 36
  %24 = load i8, ptr %23, align 4
  %25 = and i8 %24, -2
  store i8 %25, ptr %23, align 4
  store i32 0, ptr %4, align 8, !tbaa !181
  %26 = getelementptr inbounds nuw i8, ptr %0, i64 8
  %27 = load ptr, ptr %26, align 8, !tbaa !162
  %.not22 = icmp eq ptr %27, null
  br i1 %.not22, label %32, label %28

28:                                               ; preds = %22
  %29 = load ptr, ptr %27, align 8, !tbaa !114
  %30 = getelementptr inbounds nuw i8, ptr %29, i64 32
  %31 = load ptr, ptr %30, align 8, !tbaa !169
  tail call void %31(ptr noundef nonnull %27, ptr noundef %1) #10
  tail call void @Curl_conn_cf_discard_chain(ptr noundef nonnull %26, ptr noundef %1) #10
  br label %32

32:                                               ; preds = %28, %22
  ret void
}